target datalayout = "e-m:e-p270:32:32-p271:32:32-p272:64:64-i64:64-i128:128-f80:128-n8:16:32:64-S128"
target triple = "x86_64-pc-linux-gnu"

%struct.expert_field = type { i32, i32 }
%struct._rose_ctx_t = type { i32, ptr, ptr, ptr, ptr, ptr, ptr, i32, i8, ptr, i64, %struct.anon.7, ptr }
%struct.anon.7 = type { i32, i32, i32, ptr, ptr }
%struct._qsig_err_t = type { i32, ptr }

@hf_qsig_error = internal global i32 0, align 4
@ett_qsig = internal global i32 0, align 4
@ei_qsig_unsupported_error_type = internal global %struct.expert_field zeroinitializer, align 4
@proto_qsig = internal global i32 0, align 4
@.str.2039 = private unnamed_addr constant [29 x i8] c"%s:%u: failed assertion \22%s\22\00", align 1
@.str.2040 = private unnamed_addr constant [30 x i8] c"epan/dissectors/packet-qsig.c\00", align 1
@.str.2041 = private unnamed_addr constant [5 x i8] c"rctx\00", align 1
@.str.2043 = private unnamed_addr constant [5 x i8] c": %s\00", align 1
@.str.2044 = private unnamed_addr constant [6 x i8] c" - %s\00", align 1
@.str.2045 = private unnamed_addr constant [4 x i8] c" %s\00", align 1

; Function Attrs: nounwind null_pointer_is_valid sspstrong uwtable
define internal ptr @get_err(i32 noundef %0) #4 {
  %2 = alloca ptr, align 8
  %3 = alloca i32, align 4
  %4 = alloca i32, align 4
  %5 = alloca i32, align 4
  store i32 %0, ptr %3, align 4
  call void @llvm.lifetime.start.p0(i64 4, ptr %4) #6
  store i32 90, ptr %4, align 4
  br label %6

6:                                                ; preds = %22, %1
  %7 = load i32, ptr %4, align 4
  %8 = icmp sge i32 %7, 0
  br i1 %8, label %9, label %25

9:                                                ; preds = %6
  %10 = load i32, ptr %4, align 4
  %11 = sext i32 %10 to i64
  %12 = getelementptr [91 x %struct._qsig_err_t], ptr @qsig_err_tab, i64 0, i64 %11
  %13 = getelementptr inbounds nuw %struct._qsig_err_t, ptr %12, i32 0, i32 0
  %14 = load i32, ptr %13, align 16
  %15 = load i32, ptr %3, align 4
  %16 = icmp eq i32 %14, %15
  br i1 %16, label %17, label %21

17:                                               ; preds = %9
  %18 = load i32, ptr %4, align 4
  %19 = sext i32 %18 to i64
  %20 = getelementptr [91 x %struct._qsig_err_t], ptr @qsig_err_tab, i64 0, i64 %19
  store ptr %20, ptr %2, align 8
  store i32 1, ptr %5, align 4
  br label %26

21:                                               ; preds = %9
  br label %22

22:                                               ; preds = %21
  %23 = load i32, ptr %4, align 4
  %24 = add i32 %23, -1
  store i32 %24, ptr %4, align 4
  br label %6, !llvm.loop !12

25:                                               ; preds = %6
  store ptr null, ptr %2, align 8
  store i32 1, ptr %5, align 4
  br label %26

26:                                               ; preds = %25, %17
  call void @llvm.lifetime.end.p0(i64 4, ptr %4) #6
  %27 = load ptr, ptr %2, align 8
  ret ptr %27
}

; Function Attrs: null_pointer_is_valid sspstrong uwtable
define internal i32 @dissect_qsig_err(ptr noundef %0, ptr noundef %1, ptr noundef %2, ptr noundef %3) #0 {
  %5 = alloca i32, align 4
  %6 = alloca ptr, align 8
  %7 = alloca ptr, align 8
  %8 = alloca ptr, align 8
  %9 = alloca ptr, align 8
  %10 = alloca i32, align 4
  %11 = alloca ptr, align 8
  %12 = alloca i32, align 4
  %13 = alloca ptr, align 8
  %14 = alloca ptr, align 8
  %15 = alloca ptr, align 8
  %16 = alloca ptr, align 8
  %17 = alloca i32, align 4
  store ptr %0, ptr %6, align 8
  store ptr %1, ptr %7, align 8
  store ptr %2, ptr %8, align 8
  store ptr %3, ptr %9, align 8
  call void @llvm.lifetime.start.p0(i64 4, ptr %10) #6
  store i32 0, ptr %10, align 4
  call void @llvm.lifetime.start.p0(i64 8, ptr %11) #6
  call void @llvm.lifetime.start.p0(i64 4, ptr %12) #6
  call void @llvm.lifetime.start.p0(i64 8, ptr %13) #6
  call void @llvm.lifetime.start.p0(i64 8, ptr %14) #6
  call void @llvm.lifetime.start.p0(i64 8, ptr %15) #6
  call void @llvm.lifetime.start.p0(i64 8, ptr %16) #6
  %18 = load ptr, ptr %9, align 8
  %19 = icmp eq ptr %18, null
  br i1 %19, label %20, label %21

20:                                               ; preds = %4
  store i32 0, ptr %5, align 4
  store i32 1, ptr %17, align 4
  br label %129

21:                                               ; preds = %4
  %22 = load ptr, ptr %9, align 8
  %23 = call ptr @get_rose_ctx(ptr noundef %22)
  store ptr %23, ptr %11, align 8
  %24 = load ptr, ptr %11, align 8
  %25 = icmp ne ptr %24, null
  br i1 %25, label %26, label %27

26:                                               ; preds = %21
  br label %29

27:                                               ; preds = %21
  call void (ptr, ...) @proto_report_dissector_bug(ptr noundef @.str.2039, ptr noundef @.str.2040, i32 noundef 12468, ptr noundef @.str.2041) #7
  unreachable

28:                                               ; No predecessors!
  br label %29

29:                                               ; preds = %28, %26
  %30 = load ptr, ptr %11, align 8
  %31 = getelementptr inbounds nuw %struct._rose_ctx_t, ptr %30, i32 0, i32 11
  %32 = getelementptr inbounds nuw %struct.anon.7, ptr %31, i32 0, i32 0
  %33 = load i32, ptr %32, align 8
  %34 = icmp ne i32 %33, 3
  br i1 %34, label %35, label %37

35:                                               ; preds = %29
  %36 = load i32, ptr %10, align 4
  store i32 %36, ptr %5, align 4
  store i32 1, ptr %17, align 4
  br label %129

37:                                               ; preds = %29
  %38 = load ptr, ptr %11, align 8
  %39 = getelementptr inbounds nuw %struct._rose_ctx_t, ptr %38, i32 0, i32 11
  %40 = getelementptr inbounds nuw %struct.anon.7, ptr %39, i32 0, i32 1
  %41 = load i32, ptr %40, align 4
  %42 = icmp ne i32 %41, 0
  br i1 %42, label %43, label %45

43:                                               ; preds = %37
  %44 = load i32, ptr %10, align 4
  store i32 %44, ptr %5, align 4
  store i32 1, ptr %17, align 4
  br label %129

45:                                               ; preds = %37
  %46 = load ptr, ptr %11, align 8
  %47 = getelementptr inbounds nuw %struct._rose_ctx_t, ptr %46, i32 0, i32 11
  %48 = getelementptr inbounds nuw %struct.anon.7, ptr %47, i32 0, i32 2
  %49 = load i32, ptr %48, align 8
  store i32 %49, ptr %12, align 4
  %50 = load i32, ptr %12, align 4
  %51 = call ptr @get_err(i32 noundef %50)
  store ptr %51, ptr %13, align 8
  %52 = load ptr, ptr %13, align 8
  %53 = icmp ne ptr %52, null
  br i1 %53, label %56, label %54

54:                                               ; preds = %45
  %55 = load i32, ptr %10, align 4
  store i32 %55, ptr %5, align 4
  store i32 1, ptr %17, align 4
  br label %129

56:                                               ; preds = %45
  %57 = load ptr, ptr %8, align 8
  %58 = load i32, ptr @proto_qsig, align 4
  %59 = load ptr, ptr %6, align 8
  %60 = load i32, ptr %10, align 4
  %61 = load ptr, ptr %6, align 8
  %62 = call i32 @tvb_captured_length(ptr noundef %61)
  %63 = call ptr @proto_tree_add_item(ptr noundef %57, i32 noundef %58, ptr noundef %59, i32 noundef %60, i32 noundef %62, i32 noundef 0)
  store ptr %63, ptr %15, align 8
  %64 = load ptr, ptr %15, align 8
  %65 = load i32, ptr @ett_qsig, align 4
  %66 = call ptr @proto_item_add_subtree(ptr noundef %64, i32 noundef %65)
  store ptr %66, ptr %16, align 8
  %67 = load ptr, ptr %16, align 8
  %68 = load i32, ptr @hf_qsig_error, align 4
  %69 = load ptr, ptr %6, align 8
  %70 = load i32, ptr %12, align 4
  %71 = call ptr @proto_tree_add_uint(ptr noundef %67, i32 noundef %68, ptr noundef %69, i32 noundef 0, i32 noundef 0, i32 noundef %70)
  %72 = load i32, ptr %12, align 4
  %73 = call ptr @try_val_to_str(i32 noundef %72, ptr noundef @qsig_str_error)
  store ptr %73, ptr %14, align 8
  %74 = load ptr, ptr %14, align 8
  %75 = icmp ne ptr %74, null
  br i1 %75, label %76, label %97

76:                                               ; preds = %56
  %77 = load ptr, ptr %15, align 8
  %78 = load ptr, ptr %14, align 8
  call void (ptr, ptr, ...) @proto_item_append_text(ptr noundef %77, ptr noundef @.str.2043, ptr noundef %78)
  %79 = load ptr, ptr %11, align 8
  %80 = getelementptr inbounds nuw %struct._rose_ctx_t, ptr %79, i32 0, i32 11
  %81 = getelementptr inbounds nuw %struct.anon.7, ptr %80, i32 0, i32 4
  %82 = load ptr, ptr %81, align 8
  %83 = load ptr, ptr %14, align 8
  call void (ptr, ptr, ...) @proto_item_append_text(ptr noundef %82, ptr noundef @.str.2044, ptr noundef %83)
  %84 = load ptr, ptr %11, align 8
  %85 = getelementptr inbounds nuw %struct._rose_ctx_t, ptr %84, i32 0, i32 7
  %86 = load i32, ptr %85, align 8
  %87 = icmp sge i32 %86, 0
  br i1 %87, label %88, label %96

88:                                               ; preds = %76
  %89 = load ptr, ptr %8, align 8
  %90 = call ptr @proto_tree_get_parent(ptr noundef %89)
  %91 = load ptr, ptr %11, align 8
  %92 = getelementptr inbounds nuw %struct._rose_ctx_t, ptr %91, i32 0, i32 7
  %93 = load i32, ptr %92, align 8
  %94 = call ptr @proto_item_get_parent_nth(ptr noundef %90, i32 noundef %93)
  %95 = load ptr, ptr %14, align 8
  call void (ptr, ptr, ...) @proto_item_append_text(ptr noundef %94, ptr noundef @.str.2045, ptr noundef %95)
  br label %96

96:                                               ; preds = %88, %76
  br label %97

97:                                               ; preds = %96, %56
  %98 = load ptr, ptr %13, align 8
  %99 = getelementptr inbounds nuw %struct._qsig_err_t, ptr %98, i32 0, i32 1
  %100 = load ptr, ptr %99, align 8
  %101 = icmp ne ptr %100, null
  br i1 %101, label %102, label %110

102:                                              ; preds = %97
  %103 = load ptr, ptr %13, align 8
  %104 = getelementptr inbounds nuw %struct._qsig_err_t, ptr %103, i32 0, i32 1
  %105 = load ptr, ptr %104, align 8
  %106 = load ptr, ptr %6, align 8
  %107 = load ptr, ptr %7, align 8
  %108 = load ptr, ptr %16, align 8
  %109 = call i32 %105(ptr noundef %106, ptr noundef %107, ptr noundef %108, ptr noundef null)
  store i32 %109, ptr %10, align 4
  br label %127

110:                                              ; preds = %97
  %111 = load ptr, ptr %6, align 8
  %112 = load i32, ptr %10, align 4
  %113 = call i32 @tvb_reported_length_remaining(ptr noundef %111, i32 noundef %112)
  %114 = icmp sgt i32 %113, 0
  br i1 %114, label %115, label %126

115:                                              ; preds = %110
  %116 = load ptr, ptr %8, align 8
  %117 = load ptr, ptr %7, align 8
  %118 = load ptr, ptr %6, align 8
  %119 = load i32, ptr %10, align 4
  %120 = call ptr @proto_tree_add_expert(ptr noundef %116, ptr noundef %117, ptr noundef @ei_qsig_unsupported_error_type, ptr noundef %118, i32 noundef %119, i32 noundef -1)
  %121 = load ptr, ptr %6, align 8
  %122 = load i32, ptr %10, align 4
  %123 = call i32 @tvb_captured_length_remaining(ptr noundef %121, i32 noundef %122)
  %124 = load i32, ptr %10, align 4
  %125 = add i32 %124, %123
  store i32 %125, ptr %10, align 4
  br label %126

126:                                              ; preds = %115, %110
  br label %127

127:                                              ; preds = %126, %102
  %128 = load i32, ptr %10, align 4
  store i32 %128, ptr %5, align 4
  store i32 1, ptr %17, align 4
  br label %129

129:                                              ; preds = %127, %54, %43, %35, %20
  call void @llvm.lifetime.end.p0(i64 8, ptr %16) #6
  call void @llvm.lifetime.end.p0(i64 8, ptr %15) #6
  call void @llvm.lifetime.end.p0(i64 8, ptr %14) #6
  call void @llvm.lifetime.end.p0(i64 8, ptr %13) #6
  call void @llvm.lifetime.end.p0(i64 4, ptr %12) #6
  call void @llvm.lifetime.end.p0(i64 8, ptr %11) #6
  call void @llvm.lifetime.end.p0(i64 4, ptr %10) #6
  %130 = load i32, ptr %5, align 4
  ret i32 %130
}