; Function Attrs: null_pointer_is_valid sspstrong uwtable
define internal i32 @dissect_qsig_err(ptr noundef %0, ptr noundef %1, ptr noundef %2, ptr noundef %3) #0 {
  %5 = icmp eq ptr %3, null
  br i1 %5, label %get_err.exit.thread, label %6

6:                                                ; preds = %4
  %7 = tail call ptr @get_rose_ctx(ptr noundef nonnull %3)
  %.not = icmp eq ptr %7, null
  br i1 %.not, label %8, label %9

8:                                                ; preds = %6
  tail call void (ptr, ...) @proto_report_dissector_bug(ptr noundef nonnull @.str.2039, ptr noundef nonnull @.str.2040, i32 noundef 12468, ptr noundef nonnull @.str.2041) #6
  unreachable

9:                                                ; preds = %6
  %10 = getelementptr inbounds nuw i8, ptr %7, i64 80
  %11 = load i32, ptr %10, align 8
  %.not50 = icmp eq i32 %11, 3
  br i1 %.not50, label %12, label %get_err.exit.thread

12:                                               ; preds = %9
  %13 = getelementptr inbounds nuw i8, ptr %7, i64 84
  %14 = load i32, ptr %13, align 4
  %.not51 = icmp eq i32 %14, 0
  br i1 %.not51, label %15, label %get_err.exit.thread

15:                                               ; preds = %12
  %16 = getelementptr inbounds nuw i8, ptr %7, i64 88
  %17 = load i32, ptr %16, align 8
  br label %20

18:                                               ; preds = %20
  %19 = add nsw i32 %.06.i, -1
  %.not.i = icmp eq i32 %.06.i, 0
  br i1 %.not.i, label %get_err.exit.thread, label %20, !llvm.loop !8

20:                                               ; preds = %18, %15
  %.06.i = phi i32 [ 90, %15 ], [ %19, %18 ]
  %21 = zext nneg i32 %.06.i to i64
  %22 = getelementptr [91 x %struct._qsig_err_t], ptr @qsig_err_tab, i64 0, i64 %21
  %23 = load i32, ptr %22, align 16
  %24 = icmp eq i32 %23, %17
  br i1 %24, label %get_err.exit, label %18

get_err.exit:                                     ; preds = %20
  %.not52 = icmp eq ptr %22, null
  br i1 %.not52, label %get_err.exit.thread, label %25

25:                                               ; preds = %get_err.exit
  %26 = load i32, ptr @proto_qsig, align 4
  %27 = tail call i32 @tvb_captured_length(ptr noundef %0)
  %28 = tail call ptr @proto_tree_add_item(ptr noundef %2, i32 noundef %26, ptr noundef %0, i32 noundef 0, i32 noundef %27, i32 noundef 0)
  %29 = load i32, ptr @ett_qsig, align 4
  %30 = tail call ptr @proto_item_add_subtree(ptr noundef %28, i32 noundef %29)
  %31 = load i32, ptr @hf_qsig_error, align 4
  %32 = tail call ptr @proto_tree_add_uint(ptr noundef %30, i32 noundef %31, ptr noundef %0, i32 noundef 0, i32 noundef 0, i32 noundef %17)
  %33 = tail call ptr @try_val_to_str(i32 noundef %17, ptr noundef nonnull @qsig_str_error)
  %.not53 = icmp eq ptr %33, null
  br i1 %.not53, label %44, label %34

34:                                               ; preds = %25
  tail call void (ptr, ptr, ...) @proto_item_append_text(ptr noundef %28, ptr noundef nonnull @.str.2043, ptr noundef nonnull %33)
  %35 = getelementptr inbounds nuw i8, ptr %7, i64 104
  %36 = load ptr, ptr %35, align 8
  tail call void (ptr, ptr, ...) @proto_item_append_text(ptr noundef %36, ptr noundef nonnull @.str.2044, ptr noundef nonnull %33)
  %37 = getelementptr inbounds nuw i8, ptr %7, i64 56
  %38 = load i32, ptr %37, align 8
  %39 = icmp sgt i32 %38, -1
  br i1 %39, label %40, label %44

40:                                               ; preds = %34
  %41 = tail call ptr @proto_tree_get_parent(ptr noundef %2)
  %42 = load i32, ptr %37, align 8
  %43 = tail call ptr @proto_item_get_parent_nth(ptr noundef %41, i32 noundef %42)
  tail call void (ptr, ptr, ...) @proto_item_append_text(ptr noundef %43, ptr noundef nonnull @.str.2045, ptr noundef nonnull %33)
  br label %44

44:                                               ; preds = %34, %40, %25
  %45 = getelementptr inbounds nuw i8, ptr %22, i64 8
  %46 = load ptr, ptr %45, align 8
  %.not54 = icmp eq ptr %46, null
  br i1 %.not54, label %49, label %47

47:                                               ; preds = %44
  %48 = tail call i32 %46(ptr noundef %0, ptr noundef %1, ptr noundef %30, ptr noundef null)
  br label %get_err.exit.thread

49:                                               ; preds = %44
  %50 = tail call i32 @tvb_reported_length_remaining(ptr noundef %0, i32 noundef 0)
  %51 = icmp sgt i32 %50, 0
  br i1 %51, label %52, label %get_err.exit.thread

52:                                               ; preds = %49
  %53 = tail call ptr @proto_tree_add_expert(ptr noundef %2, ptr noundef %1, ptr noundef nonnull @ei_qsig_unsupported_error_type, ptr noundef %0, i32 noundef 0, i32 noundef -1)
  %54 = tail call i32 @tvb_captured_length_remaining(ptr noundef %0, i32 noundef 0)
  br label %get_err.exit.thread

get_err.exit.thread:                              ; preds = %18, %47, %52, %49, %get_err.exit, %12, %9, %4
  %.0 = phi i32 [ 0, %4 ], [ 0, %9 ], [ 0, %12 ], [ 0, %get_err.exit ], [ %48, %47 ], [ %54, %52 ], [ 0, %49 ], [ 0, %18 ]
  ret i32 %.0
}